target datalayout = "e-m:e-p270:32:32-p271:32:32-p272:64:64-i64:64-i128:128-f80:128-n8:16:32:64-S128"
target triple = "x86_64-unknown-linux-gnu"

%struct.NetClientState = type { ptr, i32, %union.anon, ptr, ptr, ptr, ptr, [256 x i8], i8, ptr, i32, i8, i32, i32, i8, i8, i8, %union.anon.0 }
%union.anon = type { %struct.QTailQLink }
%struct.QTailQLink = type { ptr, ptr }
%union.anon.0 = type { %struct.QTailQLink }
%struct.VhostVDPAState = type { %struct.NetClientState, %struct.vhost_vdpa, %struct.Notifier, ptr, ptr, ptr, i8, i8, i8 }
%struct.vhost_vdpa = type { i32, i32, i32, i8, i32, %struct.MemoryListener, %struct.vhost_vdpa_iova_range, i64, i8, i8, i8, ptr, ptr, ptr, ptr, ptr, ptr, [1024 x %struct.VhostVDPAHostNotifier], %struct.anon, %struct.IOMMUNotifier }
%struct.MemoryListener = type { ptr, ptr, ptr, ptr, ptr, ptr, ptr, ptr, ptr, ptr, ptr, ptr, ptr, ptr, ptr, ptr, ptr, i32, ptr, ptr, %union.anon.1, %union.anon.2 }
%union.anon.1 = type { %struct.QTailQLink }
%union.anon.2 = type { %struct.QTailQLink }
%struct.vhost_vdpa_iova_range = type { i64, i64 }
%struct.VhostVDPAHostNotifier = type { %struct.MemoryRegion, ptr }
%struct.MemoryRegion = type { %struct.Object, i8, i8, i8, i8, i8, i8, i8, i8, i8, i8, ptr, ptr, ptr, ptr, ptr, ptr, i32, i128, i64, ptr, i64, i8, i8, i8, i8, i8, ptr, i64, i32, %union.anon.3, %union.anon.4, %union.anon.5, ptr, i32, ptr, ptr, i8 }
%struct.Object = type { ptr, ptr, ptr, i32, ptr }
%union.anon.3 = type { %struct.QTailQLink }
%union.anon.4 = type { %struct.QTailQLink }
%union.anon.5 = type { %struct.QTailQLink }
%struct.anon = type { ptr }
%struct.IOMMUNotifier = type { ptr, i32, i64, i64, i32, %struct.anon.6 }
%struct.anon.6 = type { ptr, ptr }
%struct.Notifier = type { ptr, %struct.anon.7 }
%struct.anon.7 = type { ptr, ptr }
%struct.vhost_dev = type { ptr, %struct.MemoryListener, %struct.MemoryListener, ptr, i32, ptr, i32, ptr, ptr, i32, i32, i32, i32, i64, i64, i64, i64, i64, i64, i8, i8, i64, ptr, ptr, ptr, ptr, %struct.anon.11, %struct.anon.12, %struct.IOMMUNotifier, ptr }
%struct.anon.11 = type { ptr, ptr }
%struct.anon.12 = type { ptr }

; Function Attrs: nounwind sspstrong uwtable
define internal i32 @vhost_vdpa_net_data_load(ptr noundef %nc) #0 {
entry:
  %retval = alloca i32, align 4
  %nc.addr = alloca ptr, align 8
  %s = alloca ptr, align 8
  %tmp = alloca ptr, align 8
  %__mptr = alloca ptr, align 8
  %tmp1 = alloca ptr, align 8
  %v = alloca ptr, align 8
  %has_cvq = alloca i8, align 1
  %i = alloca i32, align 4
  store ptr %nc, ptr %nc.addr, align 8
  %0 = load ptr, ptr %nc.addr, align 8
  store ptr %0, ptr %__mptr, align 8
  %1 = load ptr, ptr %__mptr, align 8
  %add.ptr = getelementptr i8, ptr %1, i64 0
  store ptr %add.ptr, ptr %tmp1, align 8
  %2 = load ptr, ptr %tmp1, align 8
  store ptr %2, ptr %tmp, align 8
  %3 = load ptr, ptr %tmp, align 8
  store ptr %3, ptr %s, align 8
  %4 = load ptr, ptr %s, align 8
  %vhost_vdpa = getelementptr inbounds %struct.VhostVDPAState, ptr %4, i32 0, i32 1
  store ptr %vhost_vdpa, ptr %v, align 8
  %5 = load ptr, ptr %v, align 8
  %dev = getelementptr inbounds %struct.vhost_vdpa, ptr %5, i32 0, i32 15
  %6 = load ptr, ptr %dev, align 8
  %vq_index_end = getelementptr inbounds %struct.vhost_dev, ptr %6, i32 0, i32 11
  %7 = load i32, ptr %vq_index_end, align 8
  %rem = srem i32 %7, 2
  %tobool = icmp ne i32 %rem, 0
  %frombool = zext i1 %tobool to i8
  store i8 %frombool, ptr %has_cvq, align 1
  %8 = load i8, ptr %has_cvq, align 1
  %tobool2 = trunc i8 %8 to i1
  br i1 %tobool2, label %if.then, label %if.end

if.then:                                          ; preds = %entry
  store i32 0, ptr %retval, align 4
  br label %return

if.end:                                           ; preds = %entry
  store i32 0, ptr %i, align 4
  br label %for.cond

for.cond:                                         ; preds = %for.inc, %if.end
  %9 = load i32, ptr %i, align 4
  %10 = load ptr, ptr %v, align 8
  %dev3 = getelementptr inbounds %struct.vhost_vdpa, ptr %10, i32 0, i32 15
  %11 = load ptr, ptr %dev3, align 8
  %nvqs = getelementptr inbounds %struct.vhost_dev, ptr %11, i32 0, i32 9
  %12 = load i32, ptr %nvqs, align 8
  %cmp = icmp ult i32 %9, %12
  br i1 %cmp, label %for.body, label %for.end

for.body:                                         ; preds = %for.cond
  %13 = load ptr, ptr %v, align 8
  %14 = load i32, ptr %i, align 4
  %15 = load ptr, ptr %v, align 8
  %dev4 = getelementptr inbounds %struct.vhost_vdpa, ptr %15, i32 0, i32 15
  %16 = load ptr, ptr %dev4, align 8
  %vq_index = getelementptr inbounds %struct.vhost_dev, ptr %16, i32 0, i32 10
  %17 = load i32, ptr %vq_index, align 4
  %add = add i32 %14, %17
  %call = call i32 @vhost_vdpa_set_vring_ready(ptr noundef %13, i32 noundef %add)
  br label %for.inc

for.inc:                                          ; preds = %for.body
  %18 = load i32, ptr %i, align 4
  %inc = add i32 %18, 1
  store i32 %inc, ptr %i, align 4
  br label %for.cond, !llvm.loop !9

for.end:                                          ; preds = %for.cond
  store i32 0, ptr %retval, align 4
  br label %return

return:                                           ; preds = %for.end, %if.then
  %19 = load i32, ptr %retval, align 4
  ret i32 %19
}