; Function Attrs: nounwind sspstrong uwtable
define internal noundef i32 @vhost_vdpa_net_data_load(ptr noundef %nc) #0 {
entry:
  %vhost_vdpa = getelementptr inbounds nuw i8, ptr %nc, i64 384
  %dev = getelementptr inbounds nuw i8, ptr %nc, i64 664
  %0 = load ptr, ptr %dev, align 8
  %vq_index_end = getelementptr inbounds nuw i8, ptr %0, i64 448
  %1 = load i32, ptr %vq_index_end, align 8
  %2 = and i32 %1, 1
  %tobool.not = icmp eq i32 %2, 0
  br i1 %tobool.not, label %for.cond.preheader, label %return

for.cond.preheader:                               ; preds = %entry
  %nvqs6 = getelementptr inbounds nuw i8, ptr %0, i64 440
  %3 = load i32, ptr %nvqs6, align 8
  %cmp7.not = icmp eq i32 %3, 0
  br i1 %cmp7.not, label %return, label %for.body

for.body:                                         ; preds = %for.cond.preheader, %for.body
  %4 = phi ptr [ %6, %for.body ], [ %0, %for.cond.preheader ]
  %i.08 = phi i32 [ %inc, %for.body ], [ 0, %for.cond.preheader ]
  %vq_index = getelementptr inbounds nuw i8, ptr %4, i64 444
  %5 = load i32, ptr %vq_index, align 4
  %add = add i32 %5, %i.08
  %call = tail call i32 @vhost_vdpa_set_vring_ready(ptr noundef nonnull %vhost_vdpa, i32 noundef %add) #13
  %inc = add nuw i32 %i.08, 1
  %6 = load ptr, ptr %dev, align 8
  %nvqs = getelementptr inbounds nuw i8, ptr %6, i64 440
  %7 = load i32, ptr %nvqs, align 8
  %cmp = icmp ult i32 %inc, %7
  br i1 %cmp, label %for.body, label %return, !llvm.loop !9

return:                                           ; preds = %for.body, %for.cond.preheader, %entry
  ret i32 0
}